; ModuleID = '54/1007.c'
source_filename = "54/1007.c"
target datalayout = "e-m:e-p270:32:32-p271:32:32-p272:64:64-i64:64-f80:128-n8:16:32:64-S128"
target triple = "x86_64-pc-linux-gnu"

@.str = private unnamed_addr constant [5 x i8] c"%d%d\00", align 1
@.str.1 = private unnamed_addr constant [3 x i8] c"%d\00", align 1

; Function Attrs: noinline nounwind uwtable
define dso_local i32 @Capple(i32 %0, i32 %1) #0 {
  %3 = alloca i32, align 4
  %4 = alloca i32, align 4
  %5 = alloca i32, align 4
  %6 = alloca i32, align 4
  %7 = alloca i32, align 4
  store i32 %0, i32* %3, align 4
  store i32 %1, i32* %4, align 4
  store i32 1, i32* %6, align 4
  br label %8

8:                                                ; preds = %45, %2
  %9 = load i32, i32* %6, align 4
  %10 = load i32, i32* %3, align 4
  %11 = mul nsw i32 %9, %10
  %12 = load i32, i32* %4, align 4
  %13 = add nsw i32 %11, %12
  store i32 %13, i32* %7, align 4
  store i32 1, i32* %5, align 4
  br label %14

14:                                               ; preds = %35, %8
  %15 = load i32, i32* %5, align 4
  %16 = load i32, i32* %3, align 4
  %17 = icmp slt i32 %15, %16
  br i1 %17, label %18, label %24

18:                                               ; preds = %14
  %19 = load i32, i32* %7, align 4
  %20 = load i32, i32* %3, align 4
  %21 = sub nsw i32 %20, 1
  %22 = srem i32 %19, %21
  %23 = icmp eq i32 %22, 0
  br label %24

24:                                               ; preds = %18, %14
  %25 = phi i1 [ false, %14 ], [ %23, %18 ]
  br i1 %25, label %26, label %38

26:                                               ; preds = %24
  %27 = load i32, i32* %7, align 4
  %28 = load i32, i32* %3, align 4
  %29 = sub nsw i32 %28, 1
  %30 = sdiv i32 %27, %29
  %31 = load i32, i32* %3, align 4
  %32 = mul nsw i32 %30, %31
  %33 = load i32, i32* %4, align 4
  %34 = add nsw i32 %32, %33
  store i32 %34, i32* %7, align 4
  br label %35

35:                                               ; preds = %26
  %36 = load i32, i32* %5, align 4
  %37 = add nsw i32 %36, 1
  store i32 %37, i32* %5, align 4
  br label %14

38:                                               ; preds = %24
  %39 = load i32, i32* %5, align 4
  %40 = load i32, i32* %3, align 4
  %41 = icmp eq i32 %39, %40
  br i1 %41, label %42, label %44

42:                                               ; preds = %38
  %43 = load i32, i32* %7, align 4
  ret i32 %43

44:                                               ; preds = %38
  br label %45

45:                                               ; preds = %44
  %46 = load i32, i32* %6, align 4
  %47 = add nsw i32 %46, 1
  store i32 %47, i32* %6, align 4
  br label %8
}

; Function Attrs: noinline nounwind uwtable
define dso_local i32 @main() #0 {
  %1 = alloca i32, align 4
  %2 = alloca i32, align 4
  %3 = alloca i32, align 4
  %4 = alloca i32, align 4
  %5 = alloca i32, align 4
  %6 = alloca i32, align 4
  store i32 0, i32* %1, align 4
  %7 = call i32 (i8*, ...) @__isoc99_scanf(i8* getelementptr inbounds ([5 x i8], [5 x i8]* @.str, i64 0, i64 0), i32* %3, i32* %4)
  %8 = load i32, i32* %3, align 4
  %9 = load i32, i32* %4, align 4
  %10 = call i32 @Capple(i32 %8, i32 %9)
  %11 = call i32 (i8*, ...) @printf(i8* getelementptr inbounds ([3 x i8], [3 x i8]* @.str.1, i64 0, i64 0), i32 %10)
  ret i32 0
}

declare dso_local i32 @__isoc99_scanf(i8*, ...) #1

declare dso_local i32 @printf(i8*, ...) #1


!llvm.module.flags = !{!0}
!llvm.ident = !{!1}

!0 = !{i32 1, !"wchar_size", i32 4}
!1 = !{!"clang version 10.0.0-4ubuntu1 "}
